target datalayout = "e-m:e-p270:32:32-p271:32:32-p272:64:64-i64:64-i128:128-f80:128-n8:16:32:64-S128"
target triple = "x86_64-pc-linux-gnu"

%struct._GTypeInstance = type { ptr }
%struct._GTypeClass = type { i64 }

@.str.4 = private unnamed_addr constant [2 x i8] c",\00", align 1

; Function Attrs: nounwind uwtable
define internal i32 @_completion_match_func(ptr noundef %0, ptr noundef %1, ptr noundef %2, ptr noundef %3) #0 {
  %5 = alloca i32, align 4
  %6 = alloca ptr, align 8
  %7 = alloca ptr, align 8
  %8 = alloca ptr, align 8
  %9 = alloca ptr, align 8
  %10 = alloca i32, align 4
  %11 = alloca ptr, align 8
  %12 = alloca ptr, align 8
  %13 = alloca i64, align 8
  %14 = alloca i32, align 4
  %15 = alloca i32, align 4
  %16 = alloca i32, align 4
  %17 = alloca i32, align 4
  %18 = alloca i32, align 4
  %19 = alloca ptr, align 8
  %20 = alloca i32, align 4
  %21 = alloca ptr, align 8
  %22 = alloca ptr, align 8
  %23 = alloca ptr, align 8
  %24 = alloca ptr, align 8
  store ptr %0, ptr %6, align 8, !tbaa !186
  store ptr %1, ptr %7, align 8, !tbaa !49
  store ptr %2, ptr %8, align 8, !tbaa !134
  store ptr %3, ptr %9, align 8, !tbaa !51
  call void @llvm.lifetime.start.p0(i64 4, ptr %10) #11
  store i32 0, ptr %10, align 4, !tbaa !31
  call void @llvm.lifetime.start.p0(i64 8, ptr %11) #11
  %25 = load ptr, ptr %6, align 8, !tbaa !186
  %26 = call ptr @gtk_entry_completion_get_entry(ptr noundef %25)
  store ptr %26, ptr %11, align 8, !tbaa !216
  call void @llvm.lifetime.start.p0(i64 8, ptr %12) #11
  %27 = load ptr, ptr %11, align 8, !tbaa !216
  store ptr %27, ptr %12, align 8, !tbaa !207
  call void @llvm.lifetime.start.p0(i64 8, ptr %13) #11
  %28 = call i64 @gtk_editable_get_type() #12
  store i64 %28, ptr %13, align 8, !tbaa !179
  call void @llvm.lifetime.start.p0(i64 4, ptr %14) #11
  %29 = load ptr, ptr %12, align 8, !tbaa !207
  %30 = icmp ne ptr %29, null
  br i1 %30, label %32, label %31

31:                                               ; preds = %4
  store i32 0, ptr %14, align 4, !tbaa !31
  br label %51

32:                                               ; preds = %4
  %33 = load ptr, ptr %12, align 8, !tbaa !207
  %34 = getelementptr inbounds nuw %struct._GTypeInstance, ptr %33, i32 0, i32 0
  %35 = load ptr, ptr %34, align 8, !tbaa !209
  %36 = icmp ne ptr %35, null
  br i1 %36, label %37, label %46

37:                                               ; preds = %32
  %38 = load ptr, ptr %12, align 8, !tbaa !207
  %39 = getelementptr inbounds nuw %struct._GTypeInstance, ptr %38, i32 0, i32 0
  %40 = load ptr, ptr %39, align 8, !tbaa !209
  %41 = getelementptr inbounds nuw %struct._GTypeClass, ptr %40, i32 0, i32 0
  %42 = load i64, ptr %41, align 8, !tbaa !212
  %43 = load i64, ptr %13, align 8, !tbaa !179
  %44 = icmp eq i64 %42, %43
  br i1 %44, label %45, label %46

45:                                               ; preds = %37
  store i32 1, ptr %14, align 4, !tbaa !31
  br label %50

46:                                               ; preds = %37, %32
  %47 = load ptr, ptr %12, align 8, !tbaa !207
  %48 = load i64, ptr %13, align 8, !tbaa !179
  %49 = call i32 @g_type_check_instance_is_a(ptr noundef %47, i64 noundef %48) #13
  store i32 %49, ptr %14, align 4, !tbaa !31
  br label %50

50:                                               ; preds = %46, %45
  br label %51

51:                                               ; preds = %50, %31
  %52 = load i32, ptr %14, align 4, !tbaa !31
  store i32 %52, ptr %15, align 4, !tbaa !31
  call void @llvm.lifetime.end.p0(i64 4, ptr %14) #11
  call void @llvm.lifetime.end.p0(i64 8, ptr %13) #11
  call void @llvm.lifetime.end.p0(i64 8, ptr %12) #11
  %53 = load i32, ptr %15, align 4, !tbaa !31
  %54 = icmp ne i32 %53, 0
  br i1 %54, label %56, label %55

55:                                               ; preds = %51
  store i32 0, ptr %5, align 4
  store i32 1, ptr %16, align 4
  br label %134

56:                                               ; preds = %51
  call void @llvm.lifetime.start.p0(i64 4, ptr %17) #11
  %57 = load ptr, ptr %11, align 8, !tbaa !216
  %58 = call i32 @gtk_editable_get_position(ptr noundef %57)
  store i32 %58, ptr %17, align 4, !tbaa !31
  call void @llvm.lifetime.start.p0(i64 4, ptr %18) #11
  %59 = load ptr, ptr %7, align 8, !tbaa !49
  %60 = load i32, ptr %17, align 4, !tbaa !31
  %61 = sext i32 %60 to i64
  %62 = getelementptr inbounds i8, ptr %59, i64 %61
  %63 = call ptr @g_strstr_len(ptr noundef %62, i64 noundef -1, ptr noundef @.str.4)
  %64 = icmp eq ptr %63, null
  %65 = zext i1 %64 to i32
  store i32 %65, ptr %18, align 4, !tbaa !31
  %66 = load i32, ptr %18, align 4, !tbaa !31
  %67 = icmp ne i32 %66, 0
  br i1 %67, label %69, label %68

68:                                               ; preds = %56
  store i32 0, ptr %5, align 4
  store i32 1, ptr %16, align 4
  br label %133

69:                                               ; preds = %56
  call void @llvm.lifetime.start.p0(i64 8, ptr %19) #11
  %70 = load ptr, ptr %6, align 8, !tbaa !186
  %71 = call ptr @gtk_entry_completion_get_model(ptr noundef %70)
  store ptr %71, ptr %19, align 8, !tbaa !36
  call void @llvm.lifetime.start.p0(i64 4, ptr %20) #11
  %72 = load ptr, ptr %6, align 8, !tbaa !186
  %73 = call i32 @gtk_entry_completion_get_text_column(ptr noundef %72)
  store i32 %73, ptr %20, align 4, !tbaa !31
  %74 = load ptr, ptr %19, align 8, !tbaa !36
  %75 = load i32, ptr %20, align 4, !tbaa !31
  %76 = call i64 @gtk_tree_model_get_column_type(ptr noundef %74, i32 noundef %75)
  %77 = icmp ne i64 %76, 64
  br i1 %77, label %78, label %79

78:                                               ; preds = %69
  store i32 0, ptr %5, align 4
  store i32 1, ptr %16, align 4
  br label %132

79:                                               ; preds = %69
  call void @llvm.lifetime.start.p0(i64 8, ptr %21) #11
  %80 = load ptr, ptr %7, align 8, !tbaa !49
  %81 = call ptr @g_strrstr(ptr noundef %80, ptr noundef @.str.4)
  store ptr %81, ptr %21, align 8, !tbaa !49
  %82 = load ptr, ptr %21, align 8, !tbaa !49
  %83 = icmp ne ptr %82, null
  br i1 %83, label %84, label %87

84:                                               ; preds = %79
  %85 = load ptr, ptr %21, align 8, !tbaa !49
  %86 = getelementptr inbounds nuw i8, ptr %85, i32 1
  store ptr %86, ptr %21, align 8, !tbaa !49
  br label %89

87:                                               ; preds = %79
  %88 = load ptr, ptr %7, align 8, !tbaa !49
  store ptr %88, ptr %21, align 8, !tbaa !49
  br label %89

89:                                               ; preds = %87, %84
  %90 = load ptr, ptr %21, align 8, !tbaa !49
  %91 = getelementptr inbounds i8, ptr %90, i64 0
  %92 = load i8, ptr %91, align 1, !tbaa !52
  %93 = sext i8 %92 to i32
  %94 = icmp eq i32 %93, 0
  br i1 %94, label %101, label %95

95:                                               ; preds = %89
  %96 = load ptr, ptr %7, align 8, !tbaa !49
  %97 = getelementptr inbounds i8, ptr %96, i64 0
  %98 = load i8, ptr %97, align 1, !tbaa !52
  %99 = sext i8 %98 to i32
  %100 = icmp eq i32 %99, 0
  br i1 %100, label %101, label %102

101:                                              ; preds = %95, %89
  store i32 0, ptr %5, align 4
  store i32 1, ptr %16, align 4
  br label %131

102:                                              ; preds = %95
  call void @llvm.lifetime.start.p0(i64 8, ptr %22) #11
  store ptr null, ptr %22, align 8, !tbaa !49
  %103 = load ptr, ptr %19, align 8, !tbaa !36
  %104 = load ptr, ptr %8, align 8, !tbaa !134
  %105 = load i32, ptr %20, align 4, !tbaa !31
  call void (ptr, ptr, ...) @gtk_tree_model_get(ptr noundef %103, ptr noundef %104, i32 noundef %105, ptr noundef %22, i32 noundef -1)
  %106 = load ptr, ptr %22, align 8, !tbaa !49
  %107 = icmp ne ptr %106, null
  br i1 %107, label %108, label %129

108:                                              ; preds = %102
  call void @llvm.lifetime.start.p0(i64 8, ptr %23) #11
  %109 = load ptr, ptr %22, align 8, !tbaa !49
  %110 = call noalias ptr @g_utf8_normalize(ptr noundef %109, i64 noundef -1, i32 noundef 2)
  store ptr %110, ptr %23, align 8, !tbaa !49
  %111 = load ptr, ptr %23, align 8, !tbaa !49
  %112 = icmp ne ptr %111, null
  br i1 %112, label %113, label %126

113:                                              ; preds = %108
  call void @llvm.lifetime.start.p0(i64 8, ptr %24) #11
  %114 = load ptr, ptr %23, align 8, !tbaa !49
  %115 = call noalias ptr @g_utf8_casefold(ptr noundef %114, i64 noundef -1)
  store ptr %115, ptr %24, align 8, !tbaa !49
  %116 = load ptr, ptr %24, align 8, !tbaa !49
  %117 = icmp ne ptr %116, null
  br i1 %117, label %118, label %124

118:                                              ; preds = %113
  %119 = load ptr, ptr %24, align 8, !tbaa !49
  %120 = load ptr, ptr %21, align 8, !tbaa !49
  %121 = call ptr @g_strstr_len(ptr noundef %119, i64 noundef -1, ptr noundef %120)
  %122 = icmp ne ptr %121, null
  %123 = zext i1 %122 to i32
  store i32 %123, ptr %10, align 4, !tbaa !31
  br label %124

124:                                              ; preds = %118, %113
  %125 = load ptr, ptr %24, align 8, !tbaa !49
  call void @g_free(ptr noundef %125)
  call void @llvm.lifetime.end.p0(i64 8, ptr %24) #11
  br label %126

126:                                              ; preds = %124, %108
  %127 = load ptr, ptr %23, align 8, !tbaa !49
  call void @g_free(ptr noundef %127)
  %128 = load ptr, ptr %22, align 8, !tbaa !49
  call void @g_free(ptr noundef %128)
  call void @llvm.lifetime.end.p0(i64 8, ptr %23) #11
  br label %129

129:                                              ; preds = %126, %102
  %130 = load i32, ptr %10, align 4, !tbaa !31
  store i32 %130, ptr %5, align 4
  store i32 1, ptr %16, align 4
  call void @llvm.lifetime.end.p0(i64 8, ptr %22) #11
  br label %131

131:                                              ; preds = %129, %101
  call void @llvm.lifetime.end.p0(i64 8, ptr %21) #11
  br label %132

132:                                              ; preds = %131, %78
  call void @llvm.lifetime.end.p0(i64 4, ptr %20) #11
  call void @llvm.lifetime.end.p0(i64 8, ptr %19) #11
  br label %133

133:                                              ; preds = %132, %68
  call void @llvm.lifetime.end.p0(i64 4, ptr %18) #11
  call void @llvm.lifetime.end.p0(i64 4, ptr %17) #11
  br label %134

134:                                              ; preds = %133, %55
  call void @llvm.lifetime.end.p0(i64 8, ptr %11) #11
  call void @llvm.lifetime.end.p0(i64 4, ptr %10) #11
  %135 = load i32, ptr %5, align 4
  ret i32 %135
}