; Function Attrs: nounwind uwtable
define internal range(i32 0, 2) i32 @_completion_match_func(ptr noundef %0, ptr noundef %1, ptr noundef %2, ptr readnone captures(none) %3) #1 {
  %5 = alloca ptr, align 8
  %6 = tail call ptr @gtk_entry_completion_get_entry(ptr noundef %0) #16
  %7 = tail call i64 @gtk_editable_get_type() #17
  %.not = icmp eq ptr %6, null
  br i1 %.not, label %.critedge, label %8

8:                                                ; preds = %4
  %9 = load ptr, ptr %6, align 8, !tbaa !140
  %.not46 = icmp eq ptr %9, null
  br i1 %.not46, label %13, label %10

10:                                               ; preds = %8
  %11 = load i64, ptr %9, align 8, !tbaa !143
  %12 = icmp eq i64 %11, %7
  br i1 %12, label %.critedge54, label %13

13:                                               ; preds = %10, %8
  %14 = tail call i32 @g_type_check_instance_is_a(ptr noundef nonnull %6, i64 noundef %7) #18
  %15 = icmp eq i32 %14, 0
  br i1 %15, label %.critedge, label %.critedge54

.critedge54:                                      ; preds = %10, %13
  %16 = tail call i32 @gtk_editable_get_position(ptr noundef nonnull %6) #16
  %17 = sext i32 %16 to i64
  %18 = getelementptr inbounds i8, ptr %1, i64 %17
  %19 = tail call ptr @g_strstr_len(ptr noundef %18, i64 noundef -1, ptr noundef nonnull @.str.4) #16
  %20 = icmp eq ptr %19, null
  br i1 %20, label %21, label %.critedge

21:                                               ; preds = %.critedge54
  %22 = tail call ptr @gtk_entry_completion_get_model(ptr noundef %0) #16
  %23 = tail call i32 @gtk_entry_completion_get_text_column(ptr noundef %0) #16
  %24 = tail call i64 @gtk_tree_model_get_column_type(ptr noundef %22, i32 noundef %23) #16
  %.not48 = icmp eq i64 %24, 64
  br i1 %.not48, label %25, label %.critedge

25:                                               ; preds = %21
  %26 = tail call ptr @g_strrstr(ptr noundef %1, ptr noundef nonnull @.str.4) #16
  %.not49 = icmp eq ptr %26, null
  %27 = getelementptr inbounds nuw i8, ptr %26, i64 1
  %.038 = select i1 %.not49, ptr %1, ptr %27
  %28 = load i8, ptr %.038, align 1, !tbaa !40
  %29 = icmp eq i8 %28, 0
  br i1 %29, label %.critedge, label %30

30:                                               ; preds = %25
  %31 = load i8, ptr %1, align 1, !tbaa !40
  %32 = icmp eq i8 %31, 0
  br i1 %32, label %.critedge, label %33

33:                                               ; preds = %30
  call void @llvm.lifetime.start.p0(i64 8, ptr nonnull %5) #16
  store ptr null, ptr %5, align 8, !tbaa !31
  call void (ptr, ptr, ...) @gtk_tree_model_get(ptr noundef %22, ptr noundef %2, i32 noundef %23, ptr noundef nonnull %5, i32 noundef -1) #16
  %34 = load ptr, ptr %5, align 8, !tbaa !31
  %.not50 = icmp eq ptr %34, null
  br i1 %.not50, label %46, label %35

35:                                               ; preds = %33
  %36 = call noalias ptr @g_utf8_normalize(ptr noundef nonnull %34, i64 noundef -1, i32 noundef 2) #16
  %.not51 = icmp eq ptr %36, null
  br i1 %.not51, label %44, label %37

37:                                               ; preds = %35
  %38 = call noalias ptr @g_utf8_casefold(ptr noundef nonnull %36, i64 noundef -1) #16
  %.not52 = icmp eq ptr %38, null
  br i1 %.not52, label %43, label %39

39:                                               ; preds = %37
  %40 = call ptr @g_strstr_len(ptr noundef nonnull %38, i64 noundef -1, ptr noundef nonnull %.038) #16
  %41 = icmp ne ptr %40, null
  %42 = zext i1 %41 to i32
  br label %43

43:                                               ; preds = %39, %37
  %.237 = phi i32 [ %42, %39 ], [ 0, %37 ]
  call void @g_free(ptr noundef %38) #16
  br label %44

44:                                               ; preds = %43, %35
  %.136 = phi i32 [ %.237, %43 ], [ 0, %35 ]
  call void @g_free(ptr noundef %36) #16
  %45 = load ptr, ptr %5, align 8, !tbaa !31
  call void @g_free(ptr noundef %45) #16
  br label %46

46:                                               ; preds = %44, %33
  %.035 = phi i32 [ %.136, %44 ], [ 0, %33 ]
  call void @llvm.lifetime.end.p0(i64 8, ptr nonnull %5) #16
  br label %.critedge

.critedge:                                        ; preds = %4, %.critedge54, %46, %30, %25, %21, %13
  %.0 = phi i32 [ 0, %13 ], [ 0, %.critedge54 ], [ 0, %21 ], [ %.035, %46 ], [ 0, %30 ], [ 0, %25 ], [ 0, %4 ]
  ret i32 %.0
}